target datalayout = "e-m:e-p270:32:32-p271:32:32-p272:64:64-i64:64-i128:128-f80:128-n8:16:32:64-S128"
target triple = "x86_64-pc-linux-gnu"

%struct._zend_array = type { %struct._zend_refcounted_h, %union.anon.4, i32, %union.anon.6, i32, i32, i32, i32, i64, ptr }
%struct._zend_refcounted_h = type { i32, %union.anon.3 }
%union.anon.3 = type { i32 }
%union.anon.4 = type { i32 }
%union.anon.6 = type { ptr }
%struct.pdo_driver_t = type { ptr, i64, i64, ptr }

@pdo_driver_hash = hidden global %struct._zend_array zeroinitializer, align 8
@module_registry = external global %struct._zend_array, align 8
@.str.4 = private unnamed_addr constant [4 x i8] c"pdo\00", align 1
@pdo_driver_specific_ce_hash = hidden global %struct._zend_array zeroinitializer, align 8

; Function Attrs: alwaysinline nounwind uwtable
define internal zeroext i1 @zend_hash_str_exists(ptr noundef %0, ptr noundef %1, i64 noundef %2) #5 {
  %4 = alloca ptr, align 8
  %5 = alloca ptr, align 8
  %6 = alloca i64, align 8
  store ptr %0, ptr %4, align 8, !tbaa !16
  store ptr %1, ptr %5, align 8, !tbaa !31
  store i64 %2, ptr %6, align 8, !tbaa !33
  %7 = load ptr, ptr %4, align 8, !tbaa !16
  %8 = load ptr, ptr %5, align 8, !tbaa !31
  %9 = load i64, ptr %6, align 8, !tbaa !33
  %10 = call ptr @zend_hash_str_find(ptr noundef %7, ptr noundef %8, i64 noundef %9)
  %11 = icmp ne ptr %10, null
  ret i1 %11
}

; Function Attrs: nounwind uwtable
define dso_local void @php_pdo_unregister_driver(ptr noundef %0) #0 {
  %2 = alloca ptr, align 8
  store ptr %0, ptr %2, align 8, !tbaa !24
  %3 = call zeroext i1 @zend_hash_str_exists(ptr noundef @module_registry, ptr noundef @.str.4, i64 noundef 3)
  br i1 %3, label %5, label %4

4:                                                ; preds = %1
  br label %20

5:                                                ; preds = %1
  %6 = load ptr, ptr %2, align 8, !tbaa !24
  %7 = getelementptr inbounds nuw %struct.pdo_driver_t, ptr %6, i32 0, i32 0
  %8 = load ptr, ptr %7, align 8, !tbaa !25
  %9 = load ptr, ptr %2, align 8, !tbaa !24
  %10 = getelementptr inbounds nuw %struct.pdo_driver_t, ptr %9, i32 0, i32 1
  %11 = load i64, ptr %10, align 8, !tbaa !28
  %12 = call i32 @zend_hash_str_del(ptr noundef @pdo_driver_specific_ce_hash, ptr noundef %8, i64 noundef %11)
  %13 = load ptr, ptr %2, align 8, !tbaa !24
  %14 = getelementptr inbounds nuw %struct.pdo_driver_t, ptr %13, i32 0, i32 0
  %15 = load ptr, ptr %14, align 8, !tbaa !25
  %16 = load ptr, ptr %2, align 8, !tbaa !24
  %17 = getelementptr inbounds nuw %struct.pdo_driver_t, ptr %16, i32 0, i32 1
  %18 = load i64, ptr %17, align 8, !tbaa !28
  %19 = call i32 @zend_hash_str_del(ptr noundef @pdo_driver_hash, ptr noundef %15, i64 noundef %18)
  br label %20

20:                                               ; preds = %5, %4
  ret void
}