; Function Attrs: nounwind uwtable
define dso_local void @php_pdo_unregister_driver(ptr noundef readonly captures(none) %0) local_unnamed_addr #1 {
  %2 = tail call ptr @zend_hash_str_find(ptr noundef nonnull @module_registry, ptr noundef nonnull @.str.4, i64 noundef 3) #13
  %.not = icmp eq ptr %2, null
  br i1 %.not, label %11, label %3

3:                                                ; preds = %1
  %4 = load ptr, ptr %0, align 8, !tbaa !18
  %5 = getelementptr inbounds nuw i8, ptr %0, i64 8
  %6 = load i64, ptr %5, align 8, !tbaa !21
  %7 = tail call i32 @zend_hash_str_del(ptr noundef nonnull @pdo_driver_specific_ce_hash, ptr noundef %4, i64 noundef %6) #13
  %8 = load ptr, ptr %0, align 8, !tbaa !18
  %9 = load i64, ptr %5, align 8, !tbaa !21
  %10 = tail call i32 @zend_hash_str_del(ptr noundef nonnull @pdo_driver_hash, ptr noundef %8, i64 noundef %9) #13
  br label %11

11:                                               ; preds = %1, %3
  ret void
}